; Function Attrs: nounwind uwtable
define ptr @l_Lake_Toml_literalStringFn(ptr noundef %0, ptr noundef %1) local_unnamed_addr #1 {
  %3 = getelementptr inbounds nuw i8, ptr %1, i64 24
  %4 = load ptr, ptr %3, align 8, !tbaa !10
  %5 = ptrtoint ptr %4 to i64
  %6 = and i64 %5, 1
  %.not = icmp eq i64 %6, 0
  br i1 %.not, label %7, label %lean_inc.exit17

7:                                                ; preds = %2
  %.val.i = load i32, ptr %4, align 4, !tbaa !4
  %8 = icmp sgt i32 %.val.i, 0
  br i1 %8, label %9, label %11, !prof !9

9:                                                ; preds = %7
  %10 = add nuw i32 %.val.i, 1
  store i32 %10, ptr %4, align 4, !tbaa !4
  br label %lean_inc.exit17

11:                                               ; preds = %7
  %.not.i18 = icmp eq i32 %.val.i, 0
  br i1 %.not.i18, label %lean_inc.exit17, label %12

12:                                               ; preds = %11
  tail call void @lean_inc_ref_cold(ptr noundef nonnull %4) #4
  br label %lean_inc.exit17

lean_inc.exit17:                                  ; preds = %12, %11, %9, %2
  %13 = load ptr, ptr @l_Lake_Toml_literalStringFn___closed__2, align 8, !tbaa !10
  %14 = tail call ptr @l_Lake_Toml_chFn(i32 noundef 39, ptr noundef %13, ptr noundef %0, ptr noundef nonnull %1) #4
  %15 = getelementptr inbounds nuw i8, ptr %14, i64 40
  %16 = load ptr, ptr %15, align 8, !tbaa !10
  %17 = ptrtoint ptr %16 to i64
  %18 = and i64 %17, 1
  %.not22 = icmp eq i64 %18, 0
  br i1 %.not22, label %19, label %lean_inc.exit

19:                                               ; preds = %lean_inc.exit17
  %.val.i19 = load i32, ptr %16, align 4, !tbaa !4
  %20 = icmp sgt i32 %.val.i19, 0
  br i1 %20, label %21, label %23, !prof !9

21:                                               ; preds = %19
  %22 = add nuw i32 %.val.i19, 1
  store i32 %22, ptr %16, align 4, !tbaa !4
  br label %lean_inc.exit

23:                                               ; preds = %19
  %.not.i20 = icmp eq i32 %.val.i19, 0
  br i1 %.not.i20, label %lean_inc.exit, label %24

24:                                               ; preds = %23
  tail call void @lean_inc_ref_cold(ptr noundef nonnull %16) #4
  br label %lean_inc.exit

lean_inc.exit:                                    ; preds = %24, %23, %21, %lean_inc.exit17
  %25 = tail call zeroext i8 @l_Option_beqOption____x40_Init_Data_Option_Basic___hyg_160____at_Lean_Parser_ParserState_hasError___spec__1(ptr noundef %16, ptr noundef nonnull inttoptr (i64 1 to ptr)) #4
  %26 = icmp eq i8 %25, 0
  br i1 %26, label %27, label %35

27:                                               ; preds = %lean_inc.exit
  br i1 %.not, label %28, label %lean_dec.exit

28:                                               ; preds = %27
  %29 = load i32, ptr %4, align 4, !tbaa !4
  %30 = icmp sgt i32 %29, 1
  br i1 %30, label %31, label %33, !prof !9

31:                                               ; preds = %28
  %32 = add nsw i32 %29, -1
  store i32 %32, ptr %4, align 4, !tbaa !4
  br label %lean_dec.exit

33:                                               ; preds = %28
  %.not.i = icmp eq i32 %29, 0
  br i1 %.not.i, label %lean_dec.exit, label %34

34:                                               ; preds = %33
  tail call void @lean_dec_ref_cold(ptr noundef nonnull %4) #4
  br label %lean_dec.exit

35:                                               ; preds = %lean_inc.exit
  %36 = tail call ptr @l_Lake_Toml_literalStringAuxFn(ptr noundef %4, ptr noundef %0, ptr noundef nonnull %14)
  br label %lean_dec.exit

lean_dec.exit:                                    ; preds = %27, %31, %33, %34, %35
  %.0 = phi ptr [ %36, %35 ], [ %14, %34 ], [ %14, %33 ], [ %14, %31 ], [ %14, %27 ]
  ret ptr %.0
}